target datalayout = "e-m:e-p270:32:32-p271:32:32-p272:64:64-i64:64-i128:128-f80:128-n8:16:32:64-S128"
target triple = "x86_64-pc-linux-gnu"

%struct.hist_entry = type { i32, double, double }

; Function Attrs: alwaysinline nounwind uwtable
define internal double @ff_exp10(double noundef %0) #7 {
  %2 = alloca double, align 8
  store double %0, ptr %2, align 8, !tbaa !92
  %3 = load double, ptr %2, align 8, !tbaa !92
  %4 = fmul nsz double 0x400A934F0979A371, %3
  %5 = call nsz double @llvm.exp2.f64(double %4)
  ret double %5
}

; Function Attrs: nounwind uwtable
define internal ptr @get_histogram() #1 {
  %1 = alloca ptr, align 8
  %2 = alloca i32, align 4
  %3 = alloca ptr, align 8
  %4 = alloca i32, align 4
  call void @llvm.lifetime.start.p0(i64 4, ptr %2) #14
  call void @llvm.lifetime.start.p0(i64 8, ptr %3) #14
  %5 = call noalias ptr @av_calloc(i64 noundef 8001, i64 noundef 24)
  store ptr %5, ptr %3, align 8, !tbaa !94
  %6 = load ptr, ptr %3, align 8, !tbaa !94
  %7 = icmp ne ptr %6, null
  br i1 %7, label %9, label %8

8:                                                ; preds = %0
  store ptr null, ptr %1, align 8
  store i32 1, ptr %4, align 4
  br label %42

9:                                                ; preds = %0
  store i32 0, ptr %2, align 4, !tbaa !51
  br label %10

10:                                               ; preds = %37, %9
  %11 = load i32, ptr %2, align 4, !tbaa !51
  %12 = icmp slt i32 %11, 8001
  br i1 %12, label %13, label %40

13:                                               ; preds = %10
  %14 = load i32, ptr %2, align 4, !tbaa !51
  %15 = sitofp i32 %14 to double
  %16 = fdiv nsz double %15, 1.000000e+02
  %17 = fadd nsz double %16, -7.000000e+01
  %18 = load ptr, ptr %3, align 8, !tbaa !94
  %19 = load i32, ptr %2, align 4, !tbaa !51
  %20 = sext i32 %19 to i64
  %21 = getelementptr inbounds %struct.hist_entry, ptr %18, i64 %20
  %22 = getelementptr inbounds nuw %struct.hist_entry, ptr %21, i32 0, i32 2
  store double %17, ptr %22, align 8, !tbaa !95
  %23 = load ptr, ptr %3, align 8, !tbaa !94
  %24 = load i32, ptr %2, align 4, !tbaa !51
  %25 = sext i32 %24 to i64
  %26 = getelementptr inbounds %struct.hist_entry, ptr %23, i64 %25
  %27 = getelementptr inbounds nuw %struct.hist_entry, ptr %26, i32 0, i32 2
  %28 = load double, ptr %27, align 8, !tbaa !95
  %29 = fadd nsz double %28, 6.910000e-01
  %30 = fdiv nsz double %29, 1.000000e+01
  %31 = call nsz double @ff_exp10(double noundef %30)
  %32 = load ptr, ptr %3, align 8, !tbaa !94
  %33 = load i32, ptr %2, align 4, !tbaa !51
  %34 = sext i32 %33 to i64
  %35 = getelementptr inbounds %struct.hist_entry, ptr %32, i64 %34
  %36 = getelementptr inbounds nuw %struct.hist_entry, ptr %35, i32 0, i32 1
  store double %31, ptr %36, align 8, !tbaa !97
  br label %37

37:                                               ; preds = %13
  %38 = load i32, ptr %2, align 4, !tbaa !51
  %39 = add nsw i32 %38, 1
  store i32 %39, ptr %2, align 4, !tbaa !51
  br label %10, !llvm.loop !98

40:                                               ; preds = %10
  %41 = load ptr, ptr %3, align 8, !tbaa !94
  store ptr %41, ptr %1, align 8
  store i32 1, ptr %4, align 4
  br label %42

42:                                               ; preds = %40, %8
  call void @llvm.lifetime.end.p0(i64 8, ptr %3) #14
  call void @llvm.lifetime.end.p0(i64 4, ptr %2) #14
  %43 = load ptr, ptr %1, align 8
  ret ptr %43
}