; Function Attrs: nounwind uwtable
define internal fastcc noalias ptr @get_histogram() unnamed_addr #1 {
  %1 = tail call noalias ptr @av_calloc(i64 noundef 8001, i64 noundef 24) #13
  %.not = icmp eq ptr %1, null
  br i1 %.not, label %.loopexit, label %.preheader

.preheader:                                       ; preds = %0, %.preheader
  %indvars.iv = phi i64 [ %indvars.iv.next, %.preheader ], [ 0, %0 ]
  %2 = trunc nuw nsw i64 %indvars.iv to i32
  %3 = uitofp nneg i32 %2 to double
  %4 = fdiv nsz double %3, 1.000000e+02
  %5 = fadd nsz double %4, -7.000000e+01
  %6 = getelementptr inbounds nuw %struct.hist_entry, ptr %1, i64 %indvars.iv
  %7 = getelementptr inbounds nuw i8, ptr %6, i64 16
  store double %5, ptr %7, align 8, !tbaa !119
  %8 = fadd nsz double %5, 6.910000e-01
  %9 = fdiv nsz double %8, 1.000000e+01
  %10 = fmul nsz double %9, 0x400A934F0979A371
  %11 = tail call nsz double @llvm.exp2.f64(double %10)
  %12 = getelementptr inbounds nuw i8, ptr %6, i64 8
  store double %11, ptr %12, align 8, !tbaa !115
  %indvars.iv.next = add nuw nsw i64 %indvars.iv, 1
  %exitcond.not = icmp eq i64 %indvars.iv.next, 8001
  br i1 %exitcond.not, label %.loopexit, label %.preheader, !llvm.loop !150

.loopexit:                                        ; preds = %.preheader, %0
  ret ptr %1
}